; Function Attrs: nounwind uwtable
define internal fastcc noalias nonnull ptr @_init_l_Lean_Meta_Grind_initFn____x40_Lean_Meta_Tactic_Grind_EMatchTheorem___hyg_2426____closed__20() unnamed_addr #1 {
  %1 = load ptr, ptr @l_Lean_Meta_Grind_initFn____x40_Lean_Meta_Tactic_Grind_EMatchTheorem___hyg_2426____closed__16, align 8, !tbaa !9
  %2 = load ptr, ptr @l_Lean_Meta_Grind_initFn____x40_Lean_Meta_Tactic_Grind_EMatchTheorem___hyg_2426____closed__18, align 8, !tbaa !9
  %3 = load ptr, ptr @l_Lean_Meta_Grind_initFn____x40_Lean_Meta_Tactic_Grind_EMatchTheorem___hyg_2426____closed__17, align 8, !tbaa !9
  %4 = load ptr, ptr @l_Lean_Meta_Grind_initFn____x40_Lean_Meta_Tactic_Grind_EMatchTheorem___hyg_2426____closed__19, align 8, !tbaa !9
  tail call void @lean_inc_heartbeat() #9
  %5 = tail call noalias ptr @mi_malloc_small(i64 noundef 40) #9
  %6 = icmp eq ptr %5, null
  br i1 %6, label %7, label %lean_alloc_ctor.exit

7:                                                ; preds = %0
  tail call void @lean_internal_panic_out_of_memory() #10
  unreachable

lean_alloc_ctor.exit:                             ; preds = %0
  %8 = getelementptr inbounds nuw i8, ptr %5, i64 4
  store i32 1, ptr %5, align 4, !tbaa !4
  store i32 262184, ptr %8, align 4
  %9 = getelementptr inbounds nuw i8, ptr %5, i64 8
  store ptr %1, ptr %9, align 8, !tbaa !9
  %10 = getelementptr inbounds nuw i8, ptr %5, i64 16
  store ptr %2, ptr %10, align 8, !tbaa !9
  %11 = getelementptr inbounds nuw i8, ptr %5, i64 24
  store ptr %3, ptr %11, align 8, !tbaa !9
  %12 = getelementptr inbounds nuw i8, ptr %5, i64 32
  store ptr %4, ptr %12, align 8, !tbaa !9
  ret ptr %5
}